; Function Attrs: mustprogress uwtable
define hidden noundef ptr @_Z22mk_arith_bounds_tacticR11ast_managerRK10params_ref(ptr noundef nonnull align 8 dereferenceable(976) %m, ptr nocapture noundef nonnull readnone align 8 dereferenceable(8) %p) local_unnamed_addr #3 personality ptr @__gxx_personality_v0 {
entry:
  %call = tail call noalias noundef ptr @_ZN6memory8allocateEm(i64 noundef 40)
  %m_ref_count.i.i = getelementptr inbounds i8, ptr %call, i64 8
  store i32 0, ptr %m_ref_count.i.i, align 8
  store ptr getelementptr inbounds ({ [25 x ptr] }, ptr @_ZTV19arith_bounds_tactic, i64 0, i32 0, i64 2), ptr %call, align 8
  %m2.i = getelementptr inbounds i8, ptr %call, i64 16
  store ptr %m, ptr %m2.i, align 8
  %a.i = getelementptr inbounds i8, ptr %call, i64 24
  tail call void @_ZN10arith_utilC1ER11ast_manager(ptr noundef nonnull align 8 dereferenceable(16) %a.i, ptr noundef nonnull align 8 dereferenceable(976) %m)
  ret ptr %call
}